target datalayout = "e-m:e-p270:32:32-p271:32:32-p272:64:64-i64:64-i128:128-f80:128-n8:16:32:64-S128"
target triple = "x86_64-pc-linux-gnu"

%struct.FunctionCallInfoBaseData = type { ptr, ptr, ptr, i32, i8, i16, [0 x %struct.NullableDatum] }
%struct.NullableDatum = type { i64, i8 }
%struct.pg_locale_struct = type { i8, i8, i8, i8, i8, ptr, %union.anon }
%union.anon = type { %struct.anon }
%struct.anon = type { ptr, i8 }
%struct.varattrib_1b = type { i8, [0 x i8] }
%struct.anon.1 = type { i32, [0 x i8] }
%struct.varattrib_1b_e = type { i8, i8, [0 x i8] }

@.str = private unnamed_addr constant [62 x i8] c"could not determine which collation to use for string hashing\00", align 1
@.str.1 = private unnamed_addr constant [56 x i8] c"Use the COLLATE clause to set the collation explicitly.\00", align 1
@.str.2 = private unnamed_addr constant [11 x i8] c"hashfunc.c\00", align 1
@.str.3 = private unnamed_addr constant [41 x i8] c"pg_strnxfrm() returned unexpected result\00", align 1
@__func__.hashtextextended = private unnamed_addr constant [17 x i8] c"hashtextextended\00", align 1

; Function Attrs: inlinehint nounwind uwtable
define internal i64 @UInt64GetDatum(i64 noundef %0) #1 {
  %2 = alloca i64, align 8
  store i64 %0, ptr %2, align 8
  %3 = load i64, ptr %2, align 8
  ret i64 %3
}

; Function Attrs: inlinehint nounwind uwtable
define internal i64 @hash_any_extended(ptr noundef %0, i32 noundef %1, i64 noundef %2) #1 {
  %4 = alloca ptr, align 8
  %5 = alloca i32, align 4
  %6 = alloca i64, align 8
  store ptr %0, ptr %4, align 8
  store i32 %1, ptr %5, align 4
  store i64 %2, ptr %6, align 8
  %7 = load ptr, ptr %4, align 8
  %8 = load i32, ptr %5, align 4
  %9 = load i64, ptr %6, align 8
  %10 = call i64 @hash_bytes_extended(ptr noundef %7, i32 noundef %8, i64 noundef %9)
  %11 = call i64 @UInt64GetDatum(i64 noundef %10)
  ret i64 %11
}

; Function Attrs: inlinehint nounwind uwtable
define internal i64 @DatumGetInt64(i64 noundef %0) #1 {
  %2 = alloca i64, align 8
  store i64 %0, ptr %2, align 8
  %3 = load i64, ptr %2, align 8
  ret i64 %3
}

; Function Attrs: inlinehint nounwind uwtable
define internal ptr @DatumGetPointer(i64 noundef %0) #1 {
  %2 = alloca i64, align 8
  store i64 %0, ptr %2, align 8
  %3 = load i64, ptr %2, align 8
  %4 = inttoptr i64 %3 to ptr
  ret ptr %4
}

; Function Attrs: nounwind uwtable
define dso_local i64 @hashtextextended(ptr noundef %0) #0 {
  %2 = alloca ptr, align 8
  %3 = alloca ptr, align 8
  %4 = alloca i32, align 4
  %5 = alloca ptr, align 8
  %6 = alloca i64, align 8
  %7 = alloca i64, align 8
  %8 = alloca i64, align 8
  %9 = alloca ptr, align 8
  %10 = alloca ptr, align 8
  %11 = alloca i64, align 8
  store ptr %0, ptr %2, align 8
  call void @llvm.lifetime.start.p0(i64 8, ptr %3) #7
  %12 = load ptr, ptr %2, align 8
  %13 = getelementptr inbounds nuw %struct.FunctionCallInfoBaseData, ptr %12, i32 0, i32 6
  %14 = getelementptr inbounds [0 x %struct.NullableDatum], ptr %13, i64 0, i64 0
  %15 = getelementptr inbounds nuw %struct.NullableDatum, ptr %14, i32 0, i32 0
  %16 = load i64, ptr %15, align 8
  %17 = call ptr @DatumGetPointer(i64 noundef %16)
  %18 = call ptr @pg_detoast_datum_packed(ptr noundef %17)
  store ptr %18, ptr %3, align 8
  call void @llvm.lifetime.start.p0(i64 4, ptr %4) #7
  %19 = load ptr, ptr %2, align 8
  %20 = getelementptr inbounds nuw %struct.FunctionCallInfoBaseData, ptr %19, i32 0, i32 3
  %21 = load i32, ptr %20, align 8
  store i32 %21, ptr %4, align 4
  call void @llvm.lifetime.start.p0(i64 8, ptr %5) #7
  call void @llvm.lifetime.start.p0(i64 8, ptr %6) #7
  %22 = load i32, ptr %4, align 4
  %23 = icmp ne i32 %22, 0
  br i1 %23, label %37, label %24

24:                                               ; preds = %1
  br label %25

25:                                               ; preds = %24
  br i1 true, label %26, label %28

26:                                               ; preds = %25
  %27 = call zeroext i1 @errstart_cold(i32 noundef 21, ptr noundef null) #9
  br i1 %27, label %30, label %34

28:                                               ; preds = %25
  %29 = call zeroext i1 @errstart(i32 noundef 21, ptr noundef null)
  br i1 %29, label %30, label %34

30:                                               ; preds = %28, %26
  %31 = call i32 @errcode(i32 noundef 34209924)
  %32 = call i32 (ptr, ...) @errmsg(ptr noundef @.str)
  %33 = call i32 (ptr, ...) @errhint(ptr noundef @.str.1)
  call void @errfinish(ptr noundef @.str.2, i32 noundef 333, ptr noundef @__func__.hashtextextended)
  br label %34

34:                                               ; preds = %30, %28, %26
  unreachable

35:                                               ; No predecessors!
  br label %36

36:                                               ; preds = %35
  br label %37

37:                                               ; preds = %36, %1
  %38 = load i32, ptr %4, align 4
  %39 = call ptr @pg_newlocale_from_collation(i32 noundef %38)
  store ptr %39, ptr %5, align 8
  %40 = load ptr, ptr %5, align 8
  %41 = getelementptr inbounds nuw %struct.pg_locale_struct, ptr %40, i32 0, i32 1
  %42 = load i8, ptr %41, align 1, !range !4, !noundef !5
  %43 = trunc i8 %42 to i1
  br i1 %43, label %44, label %130

44:                                               ; preds = %37
  %45 = load ptr, ptr %3, align 8
  %46 = getelementptr inbounds nuw %struct.varattrib_1b, ptr %45, i32 0, i32 0
  %47 = load i8, ptr %46, align 1
  %48 = zext i8 %47 to i32
  %49 = and i32 %48, 1
  %50 = icmp eq i32 %49, 1
  br i1 %50, label %51, label %55

51:                                               ; preds = %44
  %52 = load ptr, ptr %3, align 8
  %53 = getelementptr inbounds nuw %struct.varattrib_1b, ptr %52, i32 0, i32 1
  %54 = getelementptr inbounds [0 x i8], ptr %53, i64 0, i64 0
  br label %59

55:                                               ; preds = %44
  %56 = load ptr, ptr %3, align 8
  %57 = getelementptr inbounds nuw %struct.anon.1, ptr %56, i32 0, i32 1
  %58 = getelementptr inbounds [0 x i8], ptr %57, i64 0, i64 0
  br label %59

59:                                               ; preds = %55, %51
  %60 = phi ptr [ %54, %51 ], [ %58, %55 ]
  %61 = load ptr, ptr %3, align 8
  %62 = getelementptr inbounds nuw %struct.varattrib_1b, ptr %61, i32 0, i32 0
  %63 = load i8, ptr %62, align 1
  %64 = zext i8 %63 to i32
  %65 = icmp eq i32 %64, 1
  br i1 %65, label %66, label %94

66:                                               ; preds = %59
  %67 = load ptr, ptr %3, align 8
  %68 = getelementptr inbounds nuw %struct.varattrib_1b_e, ptr %67, i32 0, i32 1
  %69 = load i8, ptr %68, align 1
  %70 = zext i8 %69 to i32
  %71 = icmp eq i32 %70, 1
  br i1 %71, label %72, label %73

72:                                               ; preds = %66
  br label %90

73:                                               ; preds = %66
  %74 = load ptr, ptr %3, align 8
  %75 = getelementptr inbounds nuw %struct.varattrib_1b_e, ptr %74, i32 0, i32 1
  %76 = load i8, ptr %75, align 1
  %77 = zext i8 %76 to i32
  %78 = and i32 %77, -2
  %79 = icmp eq i32 %78, 2
  br i1 %79, label %80, label %81

80:                                               ; preds = %73
  br label %88

81:                                               ; preds = %73
  %82 = load ptr, ptr %3, align 8
  %83 = getelementptr inbounds nuw %struct.varattrib_1b_e, ptr %82, i32 0, i32 1
  %84 = load i8, ptr %83, align 1
  %85 = zext i8 %84 to i32
  %86 = icmp eq i32 %85, 18
  %87 = select i1 %86, i64 16, i64 0
  br label %88

88:                                               ; preds = %81, %80
  %89 = phi i64 [ 8, %80 ], [ %87, %81 ]
  br label %90

90:                                               ; preds = %88, %72
  %91 = phi i64 [ 8, %72 ], [ %89, %88 ]
  %92 = add i64 2, %91
  %93 = sub i64 %92, 2
  br label %120

94:                                               ; preds = %59
  %95 = load ptr, ptr %3, align 8
  %96 = getelementptr inbounds nuw %struct.varattrib_1b, ptr %95, i32 0, i32 0
  %97 = load i8, ptr %96, align 1
  %98 = zext i8 %97 to i32
  %99 = and i32 %98, 1
  %100 = icmp eq i32 %99, 1
  br i1 %100, label %101, label %110

101:                                              ; preds = %94
  %102 = load ptr, ptr %3, align 8
  %103 = getelementptr inbounds nuw %struct.varattrib_1b, ptr %102, i32 0, i32 0
  %104 = load i8, ptr %103, align 1
  %105 = zext i8 %104 to i32
  %106 = ashr i32 %105, 1
  %107 = and i32 %106, 127
  %108 = sext i32 %107 to i64
  %109 = sub i64 %108, 1
  br label %118

110:                                              ; preds = %94
  %111 = load ptr, ptr %3, align 8
  %112 = getelementptr inbounds nuw %struct.anon.1, ptr %111, i32 0, i32 0
  %113 = load i32, ptr %112, align 4
  %114 = lshr i32 %113, 2
  %115 = and i32 %114, 1073741823
  %116 = sub i32 %115, 4
  %117 = zext i32 %116 to i64
  br label %118

118:                                              ; preds = %110, %101
  %119 = phi i64 [ %109, %101 ], [ %117, %110 ]
  br label %120

120:                                              ; preds = %118, %90
  %121 = phi i64 [ %93, %90 ], [ %119, %118 ]
  %122 = trunc i64 %121 to i32
  %123 = load ptr, ptr %2, align 8
  %124 = getelementptr inbounds nuw %struct.FunctionCallInfoBaseData, ptr %123, i32 0, i32 6
  %125 = getelementptr inbounds [0 x %struct.NullableDatum], ptr %124, i64 0, i64 1
  %126 = getelementptr inbounds nuw %struct.NullableDatum, ptr %125, i32 0, i32 0
  %127 = load i64, ptr %126, align 8
  %128 = call i64 @DatumGetInt64(i64 noundef %127)
  %129 = call i64 @hash_any_extended(ptr noundef %60, i32 noundef %122, i64 noundef %128)
  store i64 %129, ptr %6, align 8
  br label %249

130:                                              ; preds = %37
  call void @llvm.lifetime.start.p0(i64 8, ptr %7) #7
  call void @llvm.lifetime.start.p0(i64 8, ptr %8) #7
  call void @llvm.lifetime.start.p0(i64 8, ptr %9) #7
  call void @llvm.lifetime.start.p0(i64 8, ptr %10) #7
  %131 = load ptr, ptr %3, align 8
  %132 = getelementptr inbounds nuw %struct.varattrib_1b, ptr %131, i32 0, i32 0
  %133 = load i8, ptr %132, align 1
  %134 = zext i8 %133 to i32
  %135 = and i32 %134, 1
  %136 = icmp eq i32 %135, 1
  br i1 %136, label %137, label %141

137:                                              ; preds = %130
  %138 = load ptr, ptr %3, align 8
  %139 = getelementptr inbounds nuw %struct.varattrib_1b, ptr %138, i32 0, i32 1
  %140 = getelementptr inbounds [0 x i8], ptr %139, i64 0, i64 0
  br label %145

141:                                              ; preds = %130
  %142 = load ptr, ptr %3, align 8
  %143 = getelementptr inbounds nuw %struct.anon.1, ptr %142, i32 0, i32 1
  %144 = getelementptr inbounds [0 x i8], ptr %143, i64 0, i64 0
  br label %145

145:                                              ; preds = %141, %137
  %146 = phi ptr [ %140, %137 ], [ %144, %141 ]
  store ptr %146, ptr %10, align 8
  call void @llvm.lifetime.start.p0(i64 8, ptr %11) #7
  %147 = load ptr, ptr %3, align 8
  %148 = getelementptr inbounds nuw %struct.varattrib_1b, ptr %147, i32 0, i32 0
  %149 = load i8, ptr %148, align 1
  %150 = zext i8 %149 to i32
  %151 = icmp eq i32 %150, 1
  br i1 %151, label %152, label %180

152:                                              ; preds = %145
  %153 = load ptr, ptr %3, align 8
  %154 = getelementptr inbounds nuw %struct.varattrib_1b_e, ptr %153, i32 0, i32 1
  %155 = load i8, ptr %154, align 1
  %156 = zext i8 %155 to i32
  %157 = icmp eq i32 %156, 1
  br i1 %157, label %158, label %159

158:                                              ; preds = %152
  br label %176

159:                                              ; preds = %152
  %160 = load ptr, ptr %3, align 8
  %161 = getelementptr inbounds nuw %struct.varattrib_1b_e, ptr %160, i32 0, i32 1
  %162 = load i8, ptr %161, align 1
  %163 = zext i8 %162 to i32
  %164 = and i32 %163, -2
  %165 = icmp eq i32 %164, 2
  br i1 %165, label %166, label %167

166:                                              ; preds = %159
  br label %174

167:                                              ; preds = %159
  %168 = load ptr, ptr %3, align 8
  %169 = getelementptr inbounds nuw %struct.varattrib_1b_e, ptr %168, i32 0, i32 1
  %170 = load i8, ptr %169, align 1
  %171 = zext i8 %170 to i32
  %172 = icmp eq i32 %171, 18
  %173 = select i1 %172, i64 16, i64 0
  br label %174

174:                                              ; preds = %167, %166
  %175 = phi i64 [ 8, %166 ], [ %173, %167 ]
  br label %176

176:                                              ; preds = %174, %158
  %177 = phi i64 [ 8, %158 ], [ %175, %174 ]
  %178 = add i64 2, %177
  %179 = sub i64 %178, 2
  br label %206

180:                                              ; preds = %145
  %181 = load ptr, ptr %3, align 8
  %182 = getelementptr inbounds nuw %struct.varattrib_1b, ptr %181, i32 0, i32 0
  %183 = load i8, ptr %182, align 1
  %184 = zext i8 %183 to i32
  %185 = and i32 %184, 1
  %186 = icmp eq i32 %185, 1
  br i1 %186, label %187, label %196

187:                                              ; preds = %180
  %188 = load ptr, ptr %3, align 8
  %189 = getelementptr inbounds nuw %struct.varattrib_1b, ptr %188, i32 0, i32 0
  %190 = load i8, ptr %189, align 1
  %191 = zext i8 %190 to i32
  %192 = ashr i32 %191, 1
  %193 = and i32 %192, 127
  %194 = sext i32 %193 to i64
  %195 = sub i64 %194, 1
  br label %204

196:                                              ; preds = %180
  %197 = load ptr, ptr %3, align 8
  %198 = getelementptr inbounds nuw %struct.anon.1, ptr %197, i32 0, i32 0
  %199 = load i32, ptr %198, align 4
  %200 = lshr i32 %199, 2
  %201 = and i32 %200, 1073741823
  %202 = sub i32 %201, 4
  %203 = zext i32 %202 to i64
  br label %204

204:                                              ; preds = %196, %187
  %205 = phi i64 [ %195, %187 ], [ %203, %196 ]
  br label %206

206:                                              ; preds = %204, %176
  %207 = phi i64 [ %179, %176 ], [ %205, %204 ]
  store i64 %207, ptr %11, align 8
  %208 = load ptr, ptr %10, align 8
  %209 = load i64, ptr %11, align 8
  %210 = load ptr, ptr %5, align 8
  %211 = call i64 @pg_strnxfrm(ptr noundef null, i64 noundef 0, ptr noundef %208, i64 noundef %209, ptr noundef %210)
  store i64 %211, ptr %7, align 8
  %212 = load i64, ptr %7, align 8
  %213 = add i64 %212, 1
  %214 = call ptr @palloc(i64 noundef %213)
  store ptr %214, ptr %9, align 8
  %215 = load ptr, ptr %9, align 8
  %216 = load i64, ptr %7, align 8
  %217 = add i64 %216, 1
  %218 = load ptr, ptr %10, align 8
  %219 = load i64, ptr %11, align 8
  %220 = load ptr, ptr %5, align 8
  %221 = call i64 @pg_strnxfrm(ptr noundef %215, i64 noundef %217, ptr noundef %218, i64 noundef %219, ptr noundef %220)
  store i64 %221, ptr %8, align 8
  %222 = load i64, ptr %8, align 8
  %223 = load i64, ptr %7, align 8
  %224 = icmp ugt i64 %222, %223
  br i1 %224, label %225, label %236

225:                                              ; preds = %206
  br label %226

226:                                              ; preds = %225
  br i1 true, label %227, label %229

227:                                              ; preds = %226
  %228 = call zeroext i1 @errstart_cold(i32 noundef 21, ptr noundef null) #9
  br i1 %228, label %231, label %233

229:                                              ; preds = %226
  %230 = call zeroext i1 @errstart(i32 noundef 21, ptr noundef null)
  br i1 %230, label %231, label %233

231:                                              ; preds = %229, %227
  %232 = call i32 (ptr, ...) @errmsg_internal(ptr noundef @.str.3)
  call void @errfinish(ptr noundef @.str.2, i32 noundef 358, ptr noundef @__func__.hashtextextended)
  br label %233

233:                                              ; preds = %231, %229, %227
  unreachable

234:                                              ; No predecessors!
  br label %235

235:                                              ; preds = %234
  br label %236

236:                                              ; preds = %235, %206
  %237 = load ptr, ptr %9, align 8
  %238 = load i64, ptr %7, align 8
  %239 = add i64 %238, 1
  %240 = trunc i64 %239 to i32
  %241 = load ptr, ptr %2, align 8
  %242 = getelementptr inbounds nuw %struct.FunctionCallInfoBaseData, ptr %241, i32 0, i32 6
  %243 = getelementptr inbounds [0 x %struct.NullableDatum], ptr %242, i64 0, i64 1
  %244 = getelementptr inbounds nuw %struct.NullableDatum, ptr %243, i32 0, i32 0
  %245 = load i64, ptr %244, align 8
  %246 = call i64 @DatumGetInt64(i64 noundef %245)
  %247 = call i64 @hash_any_extended(ptr noundef %237, i32 noundef %240, i64 noundef %246)
  store i64 %247, ptr %6, align 8
  %248 = load ptr, ptr %9, align 8
  call void @pfree(ptr noundef %248)
  call void @llvm.lifetime.end.p0(i64 8, ptr %11) #7
  call void @llvm.lifetime.end.p0(i64 8, ptr %10) #7
  call void @llvm.lifetime.end.p0(i64 8, ptr %9) #7
  call void @llvm.lifetime.end.p0(i64 8, ptr %8) #7
  call void @llvm.lifetime.end.p0(i64 8, ptr %7) #7
  br label %249

249:                                              ; preds = %236, %120
  br label %250

250:                                              ; preds = %249
  %251 = load ptr, ptr %3, align 8
  %252 = load ptr, ptr %2, align 8
  %253 = getelementptr inbounds nuw %struct.FunctionCallInfoBaseData, ptr %252, i32 0, i32 6
  %254 = getelementptr inbounds [0 x %struct.NullableDatum], ptr %253, i64 0, i64 0
  %255 = getelementptr inbounds nuw %struct.NullableDatum, ptr %254, i32 0, i32 0
  %256 = load i64, ptr %255, align 8
  %257 = call ptr @DatumGetPointer(i64 noundef %256)
  %258 = icmp ne ptr %251, %257
  br i1 %258, label %259, label %261

259:                                              ; preds = %250
  %260 = load ptr, ptr %3, align 8
  call void @pfree(ptr noundef %260)
  br label %261

261:                                              ; preds = %259, %250
  br label %262

262:                                              ; preds = %261
  br label %263

263:                                              ; preds = %262
  %264 = load i64, ptr %6, align 8
  call void @llvm.lifetime.end.p0(i64 8, ptr %6) #7
  call void @llvm.lifetime.end.p0(i64 8, ptr %5) #7
  call void @llvm.lifetime.end.p0(i64 4, ptr %4) #7
  call void @llvm.lifetime.end.p0(i64 8, ptr %3) #7
  ret i64 %264
}