; Function Attrs: nounwind uwtable
define dso_local i64 @hashtextextended(ptr noundef readonly captures(none) %0) local_unnamed_addr #0 {
  %2 = getelementptr inbounds nuw i8, ptr %0, i64 32
  %3 = load i64, ptr %2, align 8
  %4 = inttoptr i64 %3 to ptr
  %5 = tail call ptr @pg_detoast_datum_packed(ptr noundef %4) #6
  %6 = getelementptr inbounds nuw i8, ptr %0, i64 24
  %7 = load i32, ptr %6, align 8
  %.not = icmp eq i32 %7, 0
  br i1 %.not, label %8, label %13

8:                                                ; preds = %1
  %9 = tail call zeroext i1 @errstart_cold(i32 noundef 21, ptr noundef null) #8
  tail call void @llvm.assume(i1 %9)
  %10 = tail call i32 @errcode(i32 noundef 34209924) #6
  %11 = tail call i32 (ptr, ...) @errmsg(ptr noundef nonnull @.str) #6
  %12 = tail call i32 (ptr, ...) @errhint(ptr noundef nonnull @.str.1) #6
  tail call void @errfinish(ptr noundef nonnull @.str.2, i32 noundef 333, ptr noundef nonnull @__func__.hashtextextended) #6
  unreachable

13:                                               ; preds = %1
  %14 = tail call ptr @pg_newlocale_from_collation(i32 noundef %7) #6
  %15 = getelementptr inbounds nuw i8, ptr %14, i64 1
  %16 = load i8, ptr %15, align 1, !range !4, !noundef !5
  %17 = trunc nuw i8 %16 to i1
  %18 = load i8, ptr %5, align 1
  %19 = zext i8 %18 to i32
  %20 = and i32 %19, 1
  %.not51 = icmp eq i32 %20, 0
  %21 = getelementptr inbounds nuw i8, ptr %5, i64 1
  %22 = getelementptr inbounds nuw i8, ptr %5, i64 4
  %23 = select i1 %.not51, ptr %22, ptr %21
  %24 = icmp eq i8 %18, 1
  br i1 %17, label %25, label %47

25:                                               ; preds = %13
  br i1 %24, label %26, label %34

26:                                               ; preds = %25
  %27 = load i8, ptr %21, align 1
  %28 = icmp eq i8 %27, 1
  %29 = and i8 %27, -2
  %30 = icmp eq i8 %29, 2
  %or.cond = or i1 %28, %30
  %31 = icmp eq i8 %27, 18
  %32 = select i1 %31, i32 16, i32 0
  %33 = select i1 %or.cond, i32 8, i32 %32
  br label %42

34:                                               ; preds = %25
  br i1 %.not51, label %38, label %35

35:                                               ; preds = %34
  %36 = lshr i32 %19, 1
  %37 = add nsw i32 %36, -1
  br label %42

38:                                               ; preds = %34
  %39 = load i32, ptr %5, align 4
  %40 = lshr i32 %39, 2
  %41 = add nsw i32 %40, -4
  br label %42

42:                                               ; preds = %35, %38, %26
  %43 = phi i32 [ %33, %26 ], [ %37, %35 ], [ %41, %38 ]
  %44 = getelementptr inbounds nuw i8, ptr %0, i64 48
  %45 = load i64, ptr %44, align 8
  %46 = tail call i64 @hash_bytes_extended(ptr noundef nonnull %23, i32 noundef %43, i64 noundef %45) #6
  br label %81

47:                                               ; preds = %13
  br i1 %24, label %48, label %56

48:                                               ; preds = %47
  %49 = load i8, ptr %21, align 1
  %50 = icmp eq i8 %49, 1
  %51 = and i8 %49, -2
  %52 = icmp eq i8 %51, 2
  %or.cond55 = or i1 %50, %52
  %53 = icmp eq i8 %49, 18
  %54 = select i1 %53, i64 16, i64 0
  %55 = select i1 %or.cond55, i64 8, i64 %54
  br label %66

56:                                               ; preds = %47
  br i1 %.not51, label %61, label %57

57:                                               ; preds = %56
  %58 = lshr i32 %19, 1
  %59 = zext nneg i32 %58 to i64
  %60 = add nsw i64 %59, -1
  br label %66

61:                                               ; preds = %56
  %62 = load i32, ptr %5, align 4
  %63 = lshr i32 %62, 2
  %64 = add nsw i32 %63, -4
  %65 = zext i32 %64 to i64
  br label %66

66:                                               ; preds = %57, %61, %48
  %67 = phi i64 [ %55, %48 ], [ %60, %57 ], [ %65, %61 ]
  %68 = tail call i64 @pg_strnxfrm(ptr noundef null, i64 noundef 0, ptr noundef nonnull %23, i64 noundef %67, ptr noundef nonnull %14) #6
  %69 = add i64 %68, 1
  %70 = tail call ptr @palloc(i64 noundef %69) #6
  %71 = tail call i64 @pg_strnxfrm(ptr noundef %70, i64 noundef %69, ptr noundef nonnull %23, i64 noundef %67, ptr noundef nonnull %14) #6
  %72 = icmp ugt i64 %71, %68
  br i1 %72, label %73, label %76

73:                                               ; preds = %66
  %74 = tail call zeroext i1 @errstart_cold(i32 noundef 21, ptr noundef null) #8
  tail call void @llvm.assume(i1 %74)
  %75 = tail call i32 (ptr, ...) @errmsg_internal(ptr noundef nonnull @.str.3) #6
  tail call void @errfinish(ptr noundef nonnull @.str.2, i32 noundef 358, ptr noundef nonnull @__func__.hashtextextended) #6
  unreachable

76:                                               ; preds = %66
  %77 = trunc i64 %69 to i32
  %78 = getelementptr inbounds nuw i8, ptr %0, i64 48
  %79 = load i64, ptr %78, align 8
  %80 = tail call i64 @hash_bytes_extended(ptr noundef %70, i32 noundef %77, i64 noundef %79) #6
  tail call void @pfree(ptr noundef %70) #6
  br label %81

81:                                               ; preds = %42, %76
  %.0 = phi i64 [ %46, %42 ], [ %80, %76 ]
  %82 = load i64, ptr %2, align 8
  %83 = inttoptr i64 %82 to ptr
  %.not52 = icmp eq ptr %5, %83
  br i1 %.not52, label %85, label %84

84:                                               ; preds = %81
  tail call void @pfree(ptr noundef nonnull %5) #6
  br label %85

85:                                               ; preds = %84, %81
  ret i64 %.0
}